; Function Attrs: mustprogress uwtable
define void @_ZN2cv4gapi11addWeightedERKNS_4GMatEdS3_ddi(ptr dead_on_unwind noalias writable sret(%"class.cv::GMat") align 8 %0, ptr noundef nonnull readonly align 8 captures(none) dereferenceable(16) %1, double noundef %2, ptr noundef nonnull readonly align 8 captures(none) dereferenceable(16) %3, double noundef %4, double noundef %5, i32 noundef %6) local_unnamed_addr #3 personality ptr @__gxx_personality_v0 {
  %8 = alloca %"class.cv::GMat", align 8
  %9 = alloca %"class.cv::GMat", align 8
  %10 = load ptr, ptr %1, align 8, !tbaa !3
  store ptr %10, ptr %8, align 8, !tbaa !3
  %11 = getelementptr inbounds nuw i8, ptr %8, i64 8
  %12 = getelementptr inbounds nuw i8, ptr %1, i64 8
  %13 = load ptr, ptr %12, align 8, !tbaa !11
  store ptr %13, ptr %11, align 8, !tbaa !11
  %.not.i.i.i.i = icmp eq ptr %13, null
  br i1 %.not.i.i.i.i, label %_ZN2cv4GMatC2ERKS0_.exit, label %14

14:                                               ; preds = %7
  %15 = getelementptr inbounds nuw i8, ptr %13, i64 8
  %16 = load i8, ptr @__libc_single_threaded, align 1, !tbaa !12
  %.not.i.i.i.i.i = icmp eq i8 %16, 0
  br i1 %.not.i.i.i.i.i, label %20, label %17

17:                                               ; preds = %14
  %18 = load i32, ptr %15, align 4, !tbaa !13
  %19 = add nsw i32 %18, 1
  store i32 %19, ptr %15, align 4, !tbaa !13
  br label %_ZN2cv4GMatC2ERKS0_.exit

20:                                               ; preds = %14
  %21 = atomicrmw volatile add ptr %15, i32 1 acq_rel, align 4
  br label %_ZN2cv4GMatC2ERKS0_.exit

_ZN2cv4GMatC2ERKS0_.exit:                         ; preds = %7, %17, %20
  %22 = load ptr, ptr %3, align 8, !tbaa !3
  store ptr %22, ptr %9, align 8, !tbaa !3
  %23 = getelementptr inbounds nuw i8, ptr %9, i64 8
  %24 = getelementptr inbounds nuw i8, ptr %3, i64 8
  %25 = load ptr, ptr %24, align 8, !tbaa !11
  store ptr %25, ptr %23, align 8, !tbaa !11
  %.not.i.i.i.i7 = icmp eq ptr %25, null
  br i1 %.not.i.i.i.i7, label %_ZN2cv4GMatC2ERKS0_.exit9, label %26

26:                                               ; preds = %_ZN2cv4GMatC2ERKS0_.exit
  %27 = getelementptr inbounds nuw i8, ptr %25, i64 8
  %28 = load i8, ptr @__libc_single_threaded, align 1, !tbaa !12
  %.not.i.i.i.i.i8 = icmp eq i8 %28, 0
  br i1 %.not.i.i.i.i.i8, label %32, label %29

29:                                               ; preds = %26
  %30 = load i32, ptr %27, align 4, !tbaa !13
  %31 = add nsw i32 %30, 1
  store i32 %31, ptr %27, align 4, !tbaa !13
  br label %_ZN2cv4GMatC2ERKS0_.exit9

32:                                               ; preds = %26
  %33 = atomicrmw volatile add ptr %27, i32 1 acq_rel, align 4
  br label %_ZN2cv4GMatC2ERKS0_.exit9

_ZN2cv4GMatC2ERKS0_.exit9:                        ; preds = %_ZN2cv4GMatC2ERKS0_.exit, %29, %32
  invoke void @_ZN2cv11GKernelTypeINS_4gapi4core5GAddWESt8functionIFNS_4GMatES5_dS5_ddiEEE2onES5_dS5_ddi(ptr dead_on_unwind writable sret(%"class.cv::GMat") align 8 %0, ptr noundef nonnull %8, double noundef %2, ptr noundef nonnull %9, double noundef %4, double noundef %5, i32 noundef %6)
          to label %34 unwind label %79

34:                                               ; preds = %_ZN2cv4GMatC2ERKS0_.exit9
  %35 = load ptr, ptr %23, align 8, !tbaa !11
  %.not.i.i.i = icmp eq ptr %35, null
  br i1 %.not.i.i.i, label %_ZN2cv4GMatD2Ev.exit, label %36

36:                                               ; preds = %34
  %37 = getelementptr inbounds nuw i8, ptr %35, i64 8
  %38 = load atomic i64, ptr %37 acquire, align 8
  %39 = icmp eq i64 %38, 4294967297
  %40 = trunc i64 %38 to i32
  br i1 %39, label %41, label %49

41:                                               ; preds = %36
  store i32 0, ptr %37, align 8, !tbaa !15
  %42 = getelementptr inbounds nuw i8, ptr %35, i64 12
  store i32 0, ptr %42, align 4, !tbaa !17
  %43 = load ptr, ptr %35, align 8, !tbaa !18
  %44 = getelementptr inbounds nuw i8, ptr %43, i64 16
  %45 = load ptr, ptr %44, align 8
  call void %45(ptr noundef nonnull align 8 dereferenceable(16) %35) #23
  %46 = load ptr, ptr %35, align 8, !tbaa !18
  %47 = getelementptr inbounds nuw i8, ptr %46, i64 24
  %48 = load ptr, ptr %47, align 8
  call void %48(ptr noundef nonnull align 8 dereferenceable(16) %35) #23
  br label %_ZN2cv4GMatD2Ev.exit

49:                                               ; preds = %36
  %50 = load i8, ptr @__libc_single_threaded, align 1, !tbaa !12
  %.not.i.i.i.i10 = icmp eq i8 %50, 0
  br i1 %.not.i.i.i.i10, label %53, label %51

51:                                               ; preds = %49
  %52 = add nsw i32 %40, -1
  store i32 %52, ptr %37, align 4, !tbaa !13
  br label %_ZN9__gnu_cxx27__exchange_and_add_dispatchEPii.exit.i.i.i.i

53:                                               ; preds = %49
  %54 = atomicrmw volatile add ptr %37, i32 -1 acq_rel, align 4
  br label %_ZN9__gnu_cxx27__exchange_and_add_dispatchEPii.exit.i.i.i.i

_ZN9__gnu_cxx27__exchange_and_add_dispatchEPii.exit.i.i.i.i: ; preds = %53, %51
  %.0.i.i.i.i.i = phi i32 [ %40, %51 ], [ %54, %53 ]
  %55 = icmp eq i32 %.0.i.i.i.i.i, 1
  br i1 %55, label %56, label %_ZN2cv4GMatD2Ev.exit, !prof !20

56:                                               ; preds = %_ZN9__gnu_cxx27__exchange_and_add_dispatchEPii.exit.i.i.i.i
  call void @_ZNSt16_Sp_counted_baseILN9__gnu_cxx12_Lock_policyE2EE24_M_release_last_use_coldEv(ptr noundef nonnull align 8 dereferenceable(16) %35) #23
  br label %_ZN2cv4GMatD2Ev.exit

_ZN2cv4GMatD2Ev.exit:                             ; preds = %34, %41, %_ZN9__gnu_cxx27__exchange_and_add_dispatchEPii.exit.i.i.i.i, %56
  %57 = load ptr, ptr %11, align 8, !tbaa !11
  %.not.i.i.i11 = icmp eq ptr %57, null
  br i1 %.not.i.i.i11, label %_ZN2cv4GMatD2Ev.exit15, label %58

58:                                               ; preds = %_ZN2cv4GMatD2Ev.exit
  %59 = getelementptr inbounds nuw i8, ptr %57, i64 8
  %60 = load atomic i64, ptr %59 acquire, align 8
  %61 = icmp eq i64 %60, 4294967297
  %62 = trunc i64 %60 to i32
  br i1 %61, label %63, label %71

63:                                               ; preds = %58
  store i32 0, ptr %59, align 8, !tbaa !15
  %64 = getelementptr inbounds nuw i8, ptr %57, i64 12
  store i32 0, ptr %64, align 4, !tbaa !17
  %65 = load ptr, ptr %57, align 8, !tbaa !18
  %66 = getelementptr inbounds nuw i8, ptr %65, i64 16
  %67 = load ptr, ptr %66, align 8
  call void %67(ptr noundef nonnull align 8 dereferenceable(16) %57) #23
  %68 = load ptr, ptr %57, align 8, !tbaa !18
  %69 = getelementptr inbounds nuw i8, ptr %68, i64 24
  %70 = load ptr, ptr %69, align 8
  call void %70(ptr noundef nonnull align 8 dereferenceable(16) %57) #23
  br label %_ZN2cv4GMatD2Ev.exit15

71:                                               ; preds = %58
  %72 = load i8, ptr @__libc_single_threaded, align 1, !tbaa !12
  %.not.i.i.i.i12 = icmp eq i8 %72, 0
  br i1 %.not.i.i.i.i12, label %75, label %73

73:                                               ; preds = %71
  %74 = add nsw i32 %62, -1
  store i32 %74, ptr %59, align 4, !tbaa !13
  br label %_ZN9__gnu_cxx27__exchange_and_add_dispatchEPii.exit.i.i.i.i13

75:                                               ; preds = %71
  %76 = atomicrmw volatile add ptr %59, i32 -1 acq_rel, align 4
  br label %_ZN9__gnu_cxx27__exchange_and_add_dispatchEPii.exit.i.i.i.i13

_ZN9__gnu_cxx27__exchange_and_add_dispatchEPii.exit.i.i.i.i13: ; preds = %75, %73
  %.0.i.i.i.i.i14 = phi i32 [ %62, %73 ], [ %76, %75 ]
  %77 = icmp eq i32 %.0.i.i.i.i.i14, 1
  br i1 %77, label %78, label %_ZN2cv4GMatD2Ev.exit15, !prof !20

78:                                               ; preds = %_ZN9__gnu_cxx27__exchange_and_add_dispatchEPii.exit.i.i.i.i13
  call void @_ZNSt16_Sp_counted_baseILN9__gnu_cxx12_Lock_policyE2EE24_M_release_last_use_coldEv(ptr noundef nonnull align 8 dereferenceable(16) %57) #23
  br label %_ZN2cv4GMatD2Ev.exit15

_ZN2cv4GMatD2Ev.exit15:                           ; preds = %_ZN2cv4GMatD2Ev.exit, %63, %_ZN9__gnu_cxx27__exchange_and_add_dispatchEPii.exit.i.i.i.i13, %78
  ret void

79:                                               ; preds = %_ZN2cv4GMatC2ERKS0_.exit9
  %80 = landingpad { ptr, i32 }
          cleanup
  call void @_ZN2cv4GMatD2Ev(ptr noundef nonnull align 8 dereferenceable(16) %9) #23
  call void @_ZN2cv4GMatD2Ev(ptr noundef nonnull align 8 dereferenceable(16) %8) #23
  resume { ptr, i32 } %80
}